; ModuleID = 'source-C-CXX/3/1934.c'
source_filename = "source-C-CXX/3/1934.c"
target datalayout = "e-m:e-p270:32:32-p271:32:32-p272:64:64-i64:64-f80:128-n8:16:32:64-S128"
target triple = "x86_64-pc-linux-gnu"

@.str = private unnamed_addr constant [6 x i8] c"%d %d\00", align 1
@.str.1 = private unnamed_addr constant [3 x i8] c"%d\00", align 1
@.str.2 = private unnamed_addr constant [4 x i8] c"%d\0A\00", align 1

; Function Attrs: nofree nounwind sspstrong uwtable
define dso_local void @main() local_unnamed_addr #0 {
  %1 = alloca i32, align 4
  %2 = alloca i32, align 4
  %3 = alloca [100 x [100 x i32]], align 16
  %4 = bitcast i32* %1 to i8*
  call void @llvm.lifetime.start.p0i8(i64 4, i8* nonnull %4) #3
  %5 = bitcast i32* %2 to i8*
  call void @llvm.lifetime.start.p0i8(i64 4, i8* nonnull %5) #3
  %6 = bitcast [100 x [100 x i32]]* %3 to i8*
  call void @llvm.lifetime.start.p0i8(i64 40000, i8* nonnull %6) #3
  %7 = call i32 (i8*, ...) @__isoc99_scanf(i8* getelementptr inbounds ([6 x i8], [6 x i8]* @.str, i64 0, i64 0), i32* nonnull %1, i32* nonnull %2)
  %8 = load i32, i32* %1, align 4, !tbaa !5
  %9 = icmp sgt i32 %8, 0
  %10 = load i32, i32* %2, align 4, !tbaa !5
  %11 = icmp sgt i32 %10, 0
  %12 = select i1 %9, i1 %11, i1 false
  br i1 %12, label %13, label %34

13:                                               ; preds = %0, %28
  %14 = phi i32 [ %29, %28 ], [ %8, %0 ]
  %15 = phi i32 [ %30, %28 ], [ %10, %0 ]
  %16 = phi i64 [ %31, %28 ], [ 0, %0 ]
  %17 = icmp sgt i32 %15, 0
  br i1 %17, label %18, label %28

18:                                               ; preds = %13, %18
  %19 = phi i64 [ %22, %18 ], [ 0, %13 ]
  %20 = getelementptr inbounds [100 x [100 x i32]], [100 x [100 x i32]]* %3, i64 0, i64 %16, i64 %19
  %21 = call i32 (i8*, ...) @__isoc99_scanf(i8* getelementptr inbounds ([3 x i8], [3 x i8]* @.str.1, i64 0, i64 0), i32* nonnull %20)
  %22 = add nuw nsw i64 %19, 1
  %23 = load i32, i32* %2, align 4, !tbaa !5
  %24 = sext i32 %23 to i64
  %25 = icmp slt i64 %22, %24
  br i1 %25, label %18, label %26, !llvm.loop !9

26:                                               ; preds = %18
  %27 = load i32, i32* %1, align 4, !tbaa !5
  br label %28

28:                                               ; preds = %26, %13
  %29 = phi i32 [ %27, %26 ], [ %14, %13 ]
  %30 = phi i32 [ %23, %26 ], [ %15, %13 ]
  %31 = add nuw nsw i64 %16, 1
  %32 = sext i32 %29 to i64
  %33 = icmp slt i64 %31, %32
  br i1 %33, label %13, label %34, !llvm.loop !11

34:                                               ; preds = %28, %0
  %35 = phi i32 [ %10, %0 ], [ %30, %28 ]
  %36 = phi i32 [ %8, %0 ], [ %29, %28 ]
  %37 = add i32 %36, -2
  %38 = add i32 %37, %35
  %39 = icmp slt i32 %38, 0
  br i1 %39, label %71, label %40

40:                                               ; preds = %34
  %41 = add i32 %36, %35
  %42 = add i32 %41, -1
  %43 = zext i32 %42 to i64
  br label %44

44:                                               ; preds = %40, %67
  %45 = phi i64 [ 0, %40 ], [ %68, %67 ]
  %46 = phi i64 [ 1, %40 ], [ %69, %67 ]
  br label %47

47:                                               ; preds = %44, %64
  %48 = phi i64 [ 0, %44 ], [ %65, %64 ]
  %49 = load i32, i32* %1, align 4, !tbaa !5
  %50 = sext i32 %49 to i64
  %51 = icmp slt i64 %48, %50
  br i1 %51, label %52, label %64

52:                                               ; preds = %47
  %53 = sub nsw i64 %45, %48
  %54 = icmp sgt i64 %53, -1
  %55 = load i32, i32* %2, align 4
  %56 = sext i32 %55 to i64
  %57 = icmp slt i64 %53, %56
  %58 = select i1 %54, i1 %57, i1 false
  br i1 %58, label %59, label %64

59:                                               ; preds = %52
  %60 = and i64 %53, 4294967295
  %61 = getelementptr inbounds [100 x [100 x i32]], [100 x [100 x i32]]* %3, i64 0, i64 %48, i64 %60
  %62 = load i32, i32* %61, align 4, !tbaa !5
  %63 = call i32 (i8*, ...) @printf(i8* nonnull dereferenceable(1) getelementptr inbounds ([4 x i8], [4 x i8]* @.str.2, i64 0, i64 0), i32 %62)
  br label %64

64:                                               ; preds = %47, %52, %59
  %65 = add nuw nsw i64 %48, 1
  %66 = icmp eq i64 %65, %46
  br i1 %66, label %67, label %47, !llvm.loop !13

67:                                               ; preds = %64
  %68 = add nuw nsw i64 %45, 1
  %69 = add nuw nsw i64 %46, 1
  %70 = icmp eq i64 %68, %43
  br i1 %70, label %71, label %44, !llvm.loop !14

71:                                               ; preds = %67, %34
  call void @llvm.lifetime.end.p0i8(i64 40000, i8* nonnull %6) #3
  call void @llvm.lifetime.end.p0i8(i64 4, i8* nonnull %5) #3
  call void @llvm.lifetime.end.p0i8(i64 4, i8* nonnull %4) #3
  ret void
}

; Function Attrs: argmemonly mustprogress nofree nosync nounwind willreturn
declare void @llvm.lifetime.start.p0i8(i64 immarg, i8* nocapture) #1

; Function Attrs: nofree nounwind
declare noundef i32 @__isoc99_scanf(i8* nocapture noundef readonly, ...) local_unnamed_addr #2

; Function Attrs: nofree nounwind
declare noundef i32 @printf(i8* nocapture noundef readonly, ...) local_unnamed_addr #2

; Function Attrs: argmemonly mustprogress nofree nosync nounwind willreturn
declare void @llvm.lifetime.end.p0i8(i64 immarg, i8* nocapture) #1


!llvm.module.flags = !{!0, !1, !2, !3}
!llvm.ident = !{!4}

!0 = !{i32 1, !"wchar_size", i32 4}
!1 = !{i32 7, !"PIC Level", i32 2}
!2 = !{i32 7, !"PIE Level", i32 2}
!3 = !{i32 7, !"uwtable", i32 1}
!4 = !{!"clang version 13.0.0"}
!5 = !{!6, !6, i64 0}
!6 = !{!"int", !7, i64 0}
!7 = !{!"omnipotent char", !8, i64 0}
!8 = !{!"Simple C/C++ TBAA"}
!9 = distinct !{!9, !10}
!10 = !{!"llvm.loop.mustprogress"}
!11 = distinct !{!11, !10, !12}
!12 = !{!"llvm.loop.unswitch.partial.disable"}
!13 = distinct !{!13, !10}
!14 = distinct !{!14, !10}
